******************************************************************************
               TMS320C6x Linker PC v7.4.15                     
******************************************************************************
>> Linked Mon Oct 05 12:41:33 2015

OUTPUT FILE NAME:   <220 fft integer.out>
ENTRY POINT SYMBOL: "_c_int00"  address: 00003060


MEMORY CONFIGURATION

         name            origin    length      used     unused   attr    fill
----------------------  --------  ---------  --------  --------  ----  --------
  IRAM                  00000000   00030000  000039c0  0002c640  RWIX
  L2RAM                 00030000   00010000  00000000  00010000  RWIX
  EMIFCE0               80000000   10000000  00000000  10000000  RWIX
  EMIFCE1               90000000   10000000  00000000  10000000  RWIX
  EMIFCE2               a0000000   10000000  00000000  10000000  RWIX
  EMIFCE3               b0000000   10000000  00000000  10000000  RWIX


SECTION ALLOCATION MAP

 output                                  attributes/
section   page    origin      length       input sections
--------  ----  ----------  ----------   ----------------
.bss       0    00000000    00000000     UNINITIALIZED

.pinit     0    00000000    00000000     UNINITIALIZED

.far       0    00000000    00001e0c     UNINITIALIZED
                  00000000    00001e00     main.obj (.far)
                  00001e00    0000000c     rts6700.lib : exit.obj (.far)

.text      0    00001e20    00001320     
                  00001e20    000006c0     dspfft.obj (.text)
                  000024e0    000004a0     main.obj (.text)
                  00002980    00000240     rts6700.lib : memcpy62.obj (.text:_memcpy)
                  00002bc0    00000180     c67xfastMath.lib : sindp.obj (.text)
                  00002d40    00000100     rts6700.lib : autoinit.obj (.text:__auto_init)
                  00002e40    000000e0                 : exit.obj (.text:_exit)
                  00002f20    000000c0                 : cpy_tbl.obj (.text:_copy_in)
                  00002fe0    00000080                 : cpp_init.obj (.text:___TI_cpp_init)
                  00003060    00000080                 : boot.obj (.text:_c_int00)
                  000030e0    00000040                 : args_main.obj (.text:__args_main)
                  00003120    00000020                 : exit.obj (.text:_abort)

.stack     0    00003140    00000800     UNINITIALIZED
                  00003140    00000008     rts6700.lib : boot.obj (.stack)
                  00003148    000007f8     --HOLE--

.data      0    00003940    00000060     
                  00003940    00000060     c67xfastMath.lib : sindp.obj (.data)

.cinit     0    000039a0    00000034     
                  000039a0    0000002c     rts6700.lib : exit.obj (.cinit)
                  000039cc    00000004     --HOLE-- [fill = 0]
                  000039d0    00000004     (.pad.cinit) [fill = 0]


GLOBAL SYMBOLS: SORTED ALPHABETICALLY BY Name 

address    name
--------   ----
00000000   $bss
00000000   .bss
00003940   .data
00001e20   .text
00003120   C$$EXIT
00000500   _BITREV256
00002534   _ComplexFFT
00000a00   _DATAIMAG
00000600   _DATAREAL
00003940   _HPisdp
000026bc   _InitializeFFT
00001a00   _TRANSIMAG
00001600   _TRANSREAL
00000000   _TWIDDLE256
00001200   _XDATAIMAG
00000e00   _XDATAREAL
00003940   __STACK_END
00000800   __STACK_SIZE
00000001   __TI_args_main
00002fe0   ___TI_cpp_init
00001e08   ___TI_enable_exit_profile_output
ffffffff   ___TI_pprof_out_hndl
ffffffff   ___TI_prof_data_size
ffffffff   ___TI_prof_data_start
ffffffff   ___binit__
00000000   ___bss__
ffffffff   ___c_args__
000039a0   ___cinit__
00003940   ___data__
000039a0   ___edata__
00000000   ___end__
00003140   ___etext__
ffffffff   ___pinit__
00001e20   ___text__
000030e0   __args_main
00002d40   __auto_init
00001e00   __cleanup_ptr
00001e04   __dtors_ptr
00003140   __stack
00003120   _abort
00003060   _c_int00
00002f20   _copy_in
00001e20   _dfft
00002e40   _exit
000024e0   _main
00002980   _memcpy
00002bdc   _sin
00002bdc   _sindp
ffffffff   binit
000039a0   cinit
000039a0   edata
00000000   end
00003140   etext
ffffffff   pinit


GLOBAL SYMBOLS: SORTED BY Symbol Address 

address    name
--------   ----
00000000   $bss
00000000   .bss
00000000   _TWIDDLE256
00000000   ___bss__
00000000   ___end__
00000000   end
00000001   __TI_args_main
00000500   _BITREV256
00000600   _DATAREAL
00000800   __STACK_SIZE
00000a00   _DATAIMAG
00000e00   _XDATAREAL
00001200   _XDATAIMAG
00001600   _TRANSREAL
00001a00   _TRANSIMAG
00001e00   __cleanup_ptr
00001e04   __dtors_ptr
00001e08   ___TI_enable_exit_profile_output
00001e20   .text
00001e20   ___text__
00001e20   _dfft
000024e0   _main
00002534   _ComplexFFT
000026bc   _InitializeFFT
00002980   _memcpy
00002bdc   _sin
00002bdc   _sindp
00002d40   __auto_init
00002e40   _exit
00002f20   _copy_in
00002fe0   ___TI_cpp_init
00003060   _c_int00
000030e0   __args_main
00003120   C$$EXIT
00003120   _abort
00003140   ___etext__
00003140   __stack
00003140   etext
00003940   .data
00003940   _HPisdp
00003940   __STACK_END
00003940   ___data__
000039a0   ___cinit__
000039a0   ___edata__
000039a0   cinit
000039a0   edata
ffffffff   ___TI_pprof_out_hndl
ffffffff   ___TI_prof_data_size
ffffffff   ___TI_prof_data_start
ffffffff   ___binit__
ffffffff   ___c_args__
ffffffff   ___pinit__
ffffffff   binit
ffffffff   pinit

[54 symbols]
