******************************************************************************
               TMS320C6x Linker PC v7.4.7                      
******************************************************************************
>> Linked Wed Sep 04 09:51:24 2019

OUTPUT FILE NAME:   <120 BSL AUDIO EDMA.out>
ENTRY POINT SYMBOL: "_c_int00"  address: 00003260


MEMORY CONFIGURATION

         name            origin    length      used     unused   attr    fill
----------------------  --------  ---------  --------  --------  ----  --------
  VECS                  00000000   00000200  00000200  00000000  RWIX
  BOOT                  00000200   00000200  00000000  00000200  RWIX
  IRAM                  00000400   00007c00  0000370c  000044f4  RWIX
  IRAM2                 00008000   0002c000  00000cea  0002b316  RWIX
  SRAM_EXT              80000000   01000000  00000000  01000000  RWIX
  FLASH                 90000000   00020000  00000000  00020000  RWIX


SECTION ALLOCATION MAP

 output                                  attributes/
section   page    origin      length       input sections
--------  ----  ----------  ----------   ----------------
.vecs      0    00000000    00000200     
                  00000000    00000200     vectors_intr.obj (.vecs)

$BRID      0    00000000    0000008c     COPY SECTION
                  00000000    00000054     dsk6713bsl.lib : dsk6713.obj ($BRID)
                  00000054    00000024                    : dsk6713_aic23_opencodec.obj ($BRID)
                  00000078    00000014                    : dsk6713_aic23_registers.obj ($BRID)

.text      0    00000400    00003300     
                  00000400    00000960     edma.obj (.text)
                  00000d60    00000460     dsk6713bsl.lib : dsk6713.obj (.text)
                  000011c0    00000300                    : dsk6713_aic23_opencodec.obj (.text)
                  000014c0    00000280     csl6713.lib : csl_edma.obj (.text:_EDMA_open)
                  00001740    00000240     rts6700.lib : memcpy62.obj (.text:_memcpy)
                  00001980    00000240     edma.obj (.text:retain)
                  00001bc0    00000220     csl6713.lib : csl.obj (.text:__CSL_init)
                  00001de0    000001c0                 : csl_irq.obj (.text:_IRQ_map)
                  00001fa0    000001c0                 : csl_irq.obj (.text:_mux2Tables)
                  00002160    000001a0                 : csl_edma.obj (.text:_EDMA_allocTable)
                  00002300    000001a0                 : csl_mcbsp.obj (.text:_MCBSP_reset)
                  000024a0    00000140                 : csl_edma.obj (.text:_EDMA_reset)
                  000025e0    00000140                 : csl_timer.obj (.text:_TIMER_open)
                  00002720    00000140     dsk6713bsl.lib : dsk6713_aic23_registers.obj (.text)
                  00002860    00000120     csl6713.lib : csl_timer.obj (.text:_TIMER_reset)
                  00002980    00000100                 : csl_mcbsp.obj (.text:_MCBSP_open)
                  00002a80    00000100                 : csl_mcbsp.obj (.text:_MCBSP_start)
                  00002b80    00000100     rts6700.lib : autoinit.obj (.text:__auto_init)
                  00002c80    000000e0     csl6713.lib : csl_edma.obj (.text:_EDMA_config)
                  00002d60    000000e0     rts6700.lib : strasg.obj (.text:__strasg)
                  00002e40    000000e0                 : exit.obj (.text:_exit)
                  00002f20    000000c0     csl6713.lib : csl_edma.obj (.text:_EDMA_clearPram)
                  00002fe0    000000c0     rts6700.lib : cpy_tbl.obj (.text:_copy_in)
                  000030a0    000000a0     csl6713.lib : csl_irq.obj (.text:__IRQ_init)
                  00003140    000000a0                 : csl_irq.obj (.text:_setMux)
                  000031e0    00000080     rts6700.lib : cpp_init.obj (.text:___TI_cpp_init)
                  00003260    00000080                 : boot.obj (.text:_c_int00)
                  000032e0    00000060     csl6713.lib : csl_edma.obj (.text:_EDMA_disableChannel)
                  00003340    00000060                 : csl_edma.obj (.text:_EDMA_enableChannel)
                  000033a0    00000060                 : csl_edma.obj (.text:_EDMA_intDisable)
                  00003400    00000060                 : csl_edma.obj (.text:_EDMA_intEnable)
                  00003460    00000060                 : csl_edma.obj (.text:_EDMA_qdmaConfig)
                  000034c0    00000040                 : csl_irq.obj (.text:_IRQ_enable)
                  00003500    00000040                 : csl_irq.obj (.text:_IRQ_reset)
                  00003540    00000040     rts6700.lib : args_main.obj (.text:__args_main)
                  00003580    00000020     csl6713.lib : csl.obj (.text:_CSL6713_LIB_)
                  000035a0    00000020                 : csl_edma.obj (.text:_EDMA_intClear)
                  000035c0    00000020                 : csl_edma.obj (.text:_EDMA_intTest)
                  000035e0    00000020                 : csl_irq.obj (.text:_IRQ_globalDisable)
                  00003600    00000020                 : csl_irq.obj (.text:_IRQ_globalEnable)
                  00003620    00000020                 : csl_irq.obj (.text:_IRQ_nmiEnable)
                  00003640    00000020                 : csl_irq.obj (.text:_IRQ_setVecs)
                  00003660    00000020                 : csl_mcbsp.obj (.text:_MCBSP_read)
                  00003680    00000020                 : csl_mcbsp.obj (.text:_MCBSP_write)
                  000036a0    00000020     rts6700.lib : exit.obj (.text:_abort)
                  000036c0    00000020     csl6713.lib : csl_irq.obj (.text)
                  000036e0    00000020     vectors_intr.obj (.text)

.bss       0    00000400    00000000     UNINITIALIZED

.cinit     0    00003700    000003ac     
                  00003700    0000012c     csl6713.lib : csl_irq.obj (.cinit)
                  0000382c    00000004     --HOLE-- [fill = 0]
                  00003830    000000c0     edma.obj (.cinit)
                  000038f0    00000070     csl6713.lib : csl_edma.obj (.cinit)
                  00003960    00000054                 : csl_mcbsp.obj (.cinit)
                  000039b4    00000004     --HOLE-- [fill = 0]
                  000039b8    0000004c                 : csl_timer.obj (.cinit)
                  00003a04    00000004     --HOLE-- [fill = 0]
                  00003a08    0000003c                 : csl.obj (.cinit)
                  00003a44    00000004     --HOLE-- [fill = 0]
                  00003a48    00000030     dsk6713bsl.lib : dsk6713_aic23_registers.obj (.cinit)
                  00003a78    0000002c     rts6700.lib : exit.obj (.cinit)
                  00003aa4    00000004     --HOLE-- [fill = 0]
                  00003aa8    00000004     (.pad.cinit) [fill = 0]

.const     0    00003aac    00000060     
                  00003aac    00000040     dsk6713bsl.lib : dsk6713_aic23_opencodec.obj (.const)
                  00003aec    00000020                    : dsk6713.obj (.const)

.stack     0    00008000    00000800     UNINITIALIZED
                  00008000    00000008     rts6700.lib : boot.obj (.stack)
                  00008008    000007f8     --HOLE--

.far       0    00008800    000002ea     UNINITIALIZED
                  00008800    000000f4     csl6713.lib : csl_irq.obj (.far)
                  000088f4    000000e0     edma.obj (.far)
                  000089d4    00000054     csl6713.lib : csl_edma.obj (.far)
                  00008a28    00000038                 : csl_mcbsp.obj (.far)
                  00008a60    00000028                 : csl.obj (.far)
                  00008a88    00000028     dsk6713bsl.lib : dsk6713_aic23_registers.obj (.far)
                  00008ab0    00000024     csl6713.lib : csl_timer.obj (.far)
                  00008ad4    0000000c     rts6700.lib : exit.obj (.far)
                  00008ae0    00000008     dsk6713bsl.lib : dsk6713_aic23_opencodec.obj (.far)
                  00008ae8    00000002                    : dsk6713.obj (.far)

.buffers   0    00008b00    00000200     UNINITIALIZED
                  00008b00    00000200     edma.obj (.buffers)


GLOBAL SYMBOLS: SORTED ALPHABETICALLY BY Name 

address    name
--------   ----
00000400   $bss
00000400   .bss
00000400   .text
000036a0   C$$EXIT
00008920   _AIC_data
00003580   _CSL6713_LIB_
00008ae0   _DSK6713_AIC23_codeccontrolhandle
00008ae4   _DSK6713_AIC23_codecdatahandle
000027e0   _DSK6713_AIC23_config
000011c0   _DSK6713_AIC23_openCodec
000027bc   _DSK6713_AIC23_rget
00002720   _DSK6713_AIC23_rset
00001138   _DSK6713_getVersion
00000d90   _DSK6713_init
00001090   _DSK6713_rget
000010a4   _DSK6713_rset
00008ae8   _DSK6713_version
000010b8   _DSK6713_wait
0000110c   _DSK6713_waitusec
00002160   _EDMA_allocTable
00002f20   _EDMA_clearPram
00002c80   _EDMA_config
000032e0   _EDMA_disableChannel
00003340   _EDMA_enableChannel
000035a0   _EDMA_intClear
000033a0   _EDMA_intDisable
00003400   _EDMA_intEnable
000035c0   _EDMA_intTest
000014c0   _EDMA_open
00003460   _EDMA_qdmaConfig
000024a0   _EDMA_reset
00008924   _Glo
000034c0   _IRQ_enable
000035e0   _IRQ_globalDisable
00003600   _IRQ_globalEnable
00001de0   _IRQ_map
00003620   _IRQ_nmiEnable
00003500   _IRQ_reset
00003640   _IRQ_setVecs
00002980   _MCBSP_open
00003660   _MCBSP_read
00002300   _MCBSP_reset
00002a80   _MCBSP_start
00003680   _MCBSP_write
000025e0   _TIMER_open
00002860   _TIMER_reset
00001bc0   __CSL_init
000088ec   __IRQ_dispatchTable
00008828   __IRQ_eventTable
000036c0   __IRQ_hookFetchPacket
000030a0   __IRQ_init
000088ac   __IRQ_intTable
00008a58   __MCBSP_hDev0
00008a5c   __MCBSP_hDev1
00008800   __STACK_END
00000800   __STACK_SIZE
00008ab0   __TIMER_deviceTable
00008ad0   __TIMER_hBios
00008ac8   __TIMER_hDev0
00008acc   __TIMER_hDev1
00000001   __TI_args_main
000031e0   ___TI_cpp_init
00008adc   ___TI_enable_exit_profile_output
ffffffff   ___TI_pprof_out_hndl
ffffffff   ___TI_prof_data_size
ffffffff   ___TI_prof_data_start
ffffffff   ___binit__
00000400   ___bss__
ffffffff   ___c_args__
00003700   ___cinit__
00000400   ___end__
00003700   ___etext__
ffffffff   ___pinit__
00000400   ___text__
00003540   __args_main
00002b80   __auto_init
00008ad4   __cleanup_ptr
00008ad8   __dtors_ptr
00008000   __stack
00002d60   __strasg
000036a0   _abort
00003260   _c_int00
00001980   _c_int8
00008974   _cfgEdmaPing_rx
000089a4   _cfgEdmaPing_tx
0000898c   _cfgEdmaPong_rx
000089bc   _cfgEdmaPong_tx
00008938   _cfgEdma_rx
0000895c   _cfgEdma_tx
000088f4   _config1
00002fe0   _copy_in
00002e40   _exit
0000047c   _forever_loop
0000891c   _hCodec
00008930   _hEdmaPing_rx
00008954   _hEdmaPing_tx
00008934   _hEdmaPong_rx
00008958   _hEdmaPong_tx
0000892c   _hEdma_rx
00008950   _hEdma_tx
00000688   _init
00000634   _input_sample
00000448   _main
00001740   _memcpy
000005dc   _output_sample
00008b00   _rx_ping
00008b80   _rx_pong
000089e8   _tccAllocTable
00008c00   _tx_ping
00008c80   _tx_pong
00000020   _vector1
00000140   _vector10
00000160   _vector11
00000180   _vector12
000001a0   _vector13
000001c0   _vector14
000001e0   _vector15
00000040   _vector2
00000060   _vector3
00000080   _vector4
000000a0   _vector5
000000c0   _vector6
000000e0   _vector7
00000120   _vector9
00000000   _vectors
ffffffff   binit
00003700   cinit
00000400   end
00003700   etext
ffffffff   pinit


GLOBAL SYMBOLS: SORTED BY Symbol Address 

address    name
--------   ----
00000000   _vectors
00000001   __TI_args_main
00000020   _vector1
00000040   _vector2
00000060   _vector3
00000080   _vector4
000000a0   _vector5
000000c0   _vector6
000000e0   _vector7
00000120   _vector9
00000140   _vector10
00000160   _vector11
00000180   _vector12
000001a0   _vector13
000001c0   _vector14
000001e0   _vector15
00000400   $bss
00000400   .bss
00000400   .text
00000400   ___bss__
00000400   ___end__
00000400   ___text__
00000400   end
00000448   _main
0000047c   _forever_loop
000005dc   _output_sample
00000634   _input_sample
00000688   _init
00000800   __STACK_SIZE
00000d90   _DSK6713_init
00001090   _DSK6713_rget
000010a4   _DSK6713_rset
000010b8   _DSK6713_wait
0000110c   _DSK6713_waitusec
00001138   _DSK6713_getVersion
000011c0   _DSK6713_AIC23_openCodec
000014c0   _EDMA_open
00001740   _memcpy
00001980   _c_int8
00001bc0   __CSL_init
00001de0   _IRQ_map
00002160   _EDMA_allocTable
00002300   _MCBSP_reset
000024a0   _EDMA_reset
000025e0   _TIMER_open
00002720   _DSK6713_AIC23_rset
000027bc   _DSK6713_AIC23_rget
000027e0   _DSK6713_AIC23_config
00002860   _TIMER_reset
00002980   _MCBSP_open
00002a80   _MCBSP_start
00002b80   __auto_init
00002c80   _EDMA_config
00002d60   __strasg
00002e40   _exit
00002f20   _EDMA_clearPram
00002fe0   _copy_in
000030a0   __IRQ_init
000031e0   ___TI_cpp_init
00003260   _c_int00
000032e0   _EDMA_disableChannel
00003340   _EDMA_enableChannel
000033a0   _EDMA_intDisable
00003400   _EDMA_intEnable
00003460   _EDMA_qdmaConfig
000034c0   _IRQ_enable
00003500   _IRQ_reset
00003540   __args_main
00003580   _CSL6713_LIB_
000035a0   _EDMA_intClear
000035c0   _EDMA_intTest
000035e0   _IRQ_globalDisable
00003600   _IRQ_globalEnable
00003620   _IRQ_nmiEnable
00003640   _IRQ_setVecs
00003660   _MCBSP_read
00003680   _MCBSP_write
000036a0   C$$EXIT
000036a0   _abort
000036c0   __IRQ_hookFetchPacket
00003700   ___cinit__
00003700   ___etext__
00003700   cinit
00003700   etext
00008000   __stack
00008800   __STACK_END
00008828   __IRQ_eventTable
000088ac   __IRQ_intTable
000088ec   __IRQ_dispatchTable
000088f4   _config1
0000891c   _hCodec
00008920   _AIC_data
00008924   _Glo
0000892c   _hEdma_rx
00008930   _hEdmaPing_rx
00008934   _hEdmaPong_rx
00008938   _cfgEdma_rx
00008950   _hEdma_tx
00008954   _hEdmaPing_tx
00008958   _hEdmaPong_tx
0000895c   _cfgEdma_tx
00008974   _cfgEdmaPing_rx
0000898c   _cfgEdmaPong_rx
000089a4   _cfgEdmaPing_tx
000089bc   _cfgEdmaPong_tx
000089e8   _tccAllocTable
00008a58   __MCBSP_hDev0
00008a5c   __MCBSP_hDev1
00008ab0   __TIMER_deviceTable
00008ac8   __TIMER_hDev0
00008acc   __TIMER_hDev1
00008ad0   __TIMER_hBios
00008ad4   __cleanup_ptr
00008ad8   __dtors_ptr
00008adc   ___TI_enable_exit_profile_output
00008ae0   _DSK6713_AIC23_codeccontrolhandle
00008ae4   _DSK6713_AIC23_codecdatahandle
00008ae8   _DSK6713_version
00008b00   _rx_ping
00008b80   _rx_pong
00008c00   _tx_ping
00008c80   _tx_pong
ffffffff   ___TI_pprof_out_hndl
ffffffff   ___TI_prof_data_size
ffffffff   ___TI_prof_data_start
ffffffff   ___binit__
ffffffff   ___c_args__
ffffffff   ___pinit__
ffffffff   binit
ffffffff   pinit

[130 symbols]
