******************************************************************************
               TMS320C6x Linker PC v7.4.14                     
******************************************************************************
>> Linked Wed Dec 23 23:10:56 2015

OUTPUT FILE NAME:   <185 BSL AUDIO EDMA triple optimized.out>
ENTRY POINT SYMBOL: "_c_int00"  address: 00003500


MEMORY CONFIGURATION

         name            origin    length      used     unused   attr    fill
----------------------  --------  ---------  --------  --------  ----  --------
  VECS                  00000000   00000200  00000200  00000000  RWIX
  BOOT                  00000200   00000200  00000000  00000200  RWIX
  IRAM                  00000400   00007c00  000039f4  0000420c  RWIX
  IRAM2                 00008000   0002c000  00001726  0002a8da  RWIX
  SRAM_EXT              80000000   01000000  00000000  01000000  RWIX
  FLASH                 90000000   00020000  00000000  00020000  RWIX


SECTION ALLOCATION MAP

 output                                  attributes/
section   page    origin      length       input sections
--------  ----  ----------  ----------   ----------------
$BRID      0    00000000    0000008c     COPY SECTION
                  00000000    00000054     dsk6713bsl.lib : dsk6713.obj ($BRID)
                  00000054    00000024                    : dsk6713_aic23_opencodec.obj ($BRID)
                  00000078    00000014                    : dsk6713_aic23_registers.obj ($BRID)

.vecs      0    00000000    00000200     
                  00000000    00000200     vectors_intr.obj (.vecs)

.bss       0    00000400    00000000     UNINITIALIZED

.text      0    00000400    000035a0     
                  00000400    00000b80     edma.obj (.text)
                  00000f80    00000460     dsk6713bsl.lib : dsk6713.obj (.text)
                  000013e0    00000300                    : dsk6713_aic23_opencodec.obj (.text)
                  000016e0    000002c0     edma.obj (.text:retain)
                  000019a0    00000280     csl6713.lib : csl_edma.obj (.text:_EDMA_open)
                  00001c20    00000240     rts6700.lib : memcpy62.obj (.text:_memcpy)
                  00001e60    00000220     csl6713.lib : csl.obj (.text:__CSL_init)
                  00002080    000001c0                 : csl_irq.obj (.text:_IRQ_map)
                  00002240    000001c0                 : csl_irq.obj (.text:_mux2Tables)
                  00002400    000001a0                 : csl_edma.obj (.text:_EDMA_allocTable)
                  000025a0    000001a0                 : csl_mcbsp.obj (.text:_MCBSP_reset)
                  00002740    00000140                 : csl_edma.obj (.text:_EDMA_reset)
                  00002880    00000140                 : csl_timer.obj (.text:_TIMER_open)
                  000029c0    00000140     dsk6713bsl.lib : dsk6713_aic23_registers.obj (.text)
                  00002b00    00000120     csl6713.lib : csl_timer.obj (.text:_TIMER_reset)
                  00002c20    00000100                 : csl_mcbsp.obj (.text:_MCBSP_open)
                  00002d20    00000100                 : csl_mcbsp.obj (.text:_MCBSP_start)
                  00002e20    00000100     rts6700.lib : autoinit.obj (.text:__auto_init)
                  00002f20    000000e0     csl6713.lib : csl_edma.obj (.text:_EDMA_config)
                  00003000    000000e0     rts6700.lib : strasg.obj (.text:__strasg)
                  000030e0    000000e0                 : exit.obj (.text:_exit)
                  000031c0    000000c0     csl6713.lib : csl_edma.obj (.text:_EDMA_clearPram)
                  00003280    000000c0     rts6700.lib : cpy_tbl.obj (.text:_copy_in)
                  00003340    000000a0     csl6713.lib : csl_irq.obj (.text:__IRQ_init)
                  000033e0    000000a0                 : csl_irq.obj (.text:_setMux)
                  00003480    00000080     rts6700.lib : cpp_init.obj (.text:___TI_cpp_init)
                  00003500    00000080                 : boot.obj (.text:_c_int00)
                  00003580    00000060     csl6713.lib : csl_edma.obj (.text:_EDMA_disableChannel)
                  000035e0    00000060                 : csl_edma.obj (.text:_EDMA_enableChannel)
                  00003640    00000060                 : csl_edma.obj (.text:_EDMA_intDisable)
                  000036a0    00000060                 : csl_edma.obj (.text:_EDMA_intEnable)
                  00003700    00000060                 : csl_edma.obj (.text:_EDMA_qdmaConfig)
                  00003760    00000040                 : csl_irq.obj (.text:_IRQ_enable)
                  000037a0    00000040                 : csl_irq.obj (.text:_IRQ_reset)
                  000037e0    00000040     rts6700.lib : args_main.obj (.text:__args_main)
                  00003820    00000020     csl6713.lib : csl.obj (.text:_CSL6713_LIB_)
                  00003840    00000020                 : csl_edma.obj (.text:_EDMA_intClear)
                  00003860    00000020                 : csl_edma.obj (.text:_EDMA_intTest)
                  00003880    00000020                 : csl_irq.obj (.text:_IRQ_globalDisable)
                  000038a0    00000020                 : csl_irq.obj (.text:_IRQ_globalEnable)
                  000038c0    00000020                 : csl_irq.obj (.text:_IRQ_nmiEnable)
                  000038e0    00000020                 : csl_irq.obj (.text:_IRQ_setVecs)
                  00003900    00000020                 : csl_mcbsp.obj (.text:_MCBSP_read)
                  00003920    00000020                 : csl_mcbsp.obj (.text:_MCBSP_write)
                  00003940    00000020     rts6700.lib : exit.obj (.text:_abort)
                  00003960    00000020     csl6713.lib : csl_irq.obj (.text)
                  00003980    00000020     vectors_intr.obj (.text)

.cinit     0    000039a0    000003f4     
                  000039a0    0000012c     csl6713.lib : csl_irq.obj (.cinit)
                  00003acc    00000004     --HOLE-- [fill = 0]
                  00003ad0    00000108     edma.obj (.cinit)
                  00003bd8    00000070     csl6713.lib : csl_edma.obj (.cinit)
                  00003c48    00000054                 : csl_mcbsp.obj (.cinit)
                  00003c9c    00000004     --HOLE-- [fill = 0]
                  00003ca0    0000004c                 : csl_timer.obj (.cinit)
                  00003cec    00000004     --HOLE-- [fill = 0]
                  00003cf0    0000003c                 : csl.obj (.cinit)
                  00003d2c    00000004     --HOLE-- [fill = 0]
                  00003d30    00000030     dsk6713bsl.lib : dsk6713_aic23_registers.obj (.cinit)
                  00003d60    0000002c     rts6700.lib : exit.obj (.cinit)
                  00003d8c    00000004     --HOLE-- [fill = 0]
                  00003d90    00000004     (.pad.cinit) [fill = 0]

.const     0    00003d94    00000060     
                  00003d94    00000040     dsk6713bsl.lib : dsk6713_aic23_opencodec.obj (.const)
                  00003dd4    00000020                    : dsk6713.obj (.const)

.buffers   0    00008000    00000c00     UNINITIALIZED
                  00008000    00000c00     edma.obj (.buffers)

.stack     0    00008c00    00000800     UNINITIALIZED
                  00008c00    00000008     rts6700.lib : boot.obj (.stack)
                  00008c08    000007f8     --HOLE--

.far       0    00009400    00000326     UNINITIALIZED
                  00009400    0000011c     edma.obj (.far)
                  0000951c    000000f4     csl6713.lib : csl_irq.obj (.far)
                  00009610    00000054                 : csl_edma.obj (.far)
                  00009664    00000038                 : csl_mcbsp.obj (.far)
                  0000969c    00000028                 : csl.obj (.far)
                  000096c4    00000028     dsk6713bsl.lib : dsk6713_aic23_registers.obj (.far)
                  000096ec    00000024     csl6713.lib : csl_timer.obj (.far)
                  00009710    0000000c     rts6700.lib : exit.obj (.far)
                  0000971c    00000008     dsk6713bsl.lib : dsk6713_aic23_opencodec.obj (.far)
                  00009724    00000002                    : dsk6713.obj (.far)


GLOBAL SYMBOLS: SORTED ALPHABETICALLY BY Name 

address    name
--------   ----
00000400   $bss
00000400   .bss
00000400   .text
00003940   C$$EXIT
0000942c   _AIC_data
00003820   _CSL6713_LIB_
0000971c   _DSK6713_AIC23_codeccontrolhandle
00009720   _DSK6713_AIC23_codecdatahandle
00002a80   _DSK6713_AIC23_config
000013e0   _DSK6713_AIC23_openCodec
00002a5c   _DSK6713_AIC23_rget
000029c0   _DSK6713_AIC23_rset
00001358   _DSK6713_getVersion
00000fb0   _DSK6713_init
000012b0   _DSK6713_rget
000012c4   _DSK6713_rset
00009724   _DSK6713_version
000012d8   _DSK6713_wait
0000132c   _DSK6713_waitusec
00002400   _EDMA_allocTable
000031c0   _EDMA_clearPram
00002f20   _EDMA_config
00003580   _EDMA_disableChannel
000035e0   _EDMA_enableChannel
00003840   _EDMA_intClear
00003640   _EDMA_intDisable
000036a0   _EDMA_intEnable
00003860   _EDMA_intTest
000019a0   _EDMA_open
00003700   _EDMA_qdmaConfig
00002740   _EDMA_reset
00009430   _Glo
00003760   _IRQ_enable
00003880   _IRQ_globalDisable
000038a0   _IRQ_globalEnable
00002080   _IRQ_map
000038c0   _IRQ_nmiEnable
000037a0   _IRQ_reset
000038e0   _IRQ_setVecs
00002c20   _MCBSP_open
00003900   _MCBSP_read
000025a0   _MCBSP_reset
00002d20   _MCBSP_start
00003920   _MCBSP_write
00000560   _MoveData
00002880   _TIMER_open
00002b00   _TIMER_reset
00001e60   __CSL_init
00009608   __IRQ_dispatchTable
00009544   __IRQ_eventTable
00003960   __IRQ_hookFetchPacket
00003340   __IRQ_init
000095c8   __IRQ_intTable
00009694   __MCBSP_hDev0
00009698   __MCBSP_hDev1
00009400   __STACK_END
00000800   __STACK_SIZE
000096ec   __TIMER_deviceTable
0000970c   __TIMER_hBios
00009704   __TIMER_hDev0
00009708   __TIMER_hDev1
00000001   __TI_args_main
00003480   ___TI_cpp_init
00009718   ___TI_enable_exit_profile_output
ffffffff   ___TI_pprof_out_hndl
ffffffff   ___TI_prof_data_size
ffffffff   ___TI_prof_data_start
ffffffff   ___binit__
00000400   ___bss__
ffffffff   ___c_args__
000039a0   ___cinit__
00000400   ___end__
000039a0   ___etext__
ffffffff   ___pinit__
00000400   ___text__
000037e0   __args_main
00002e20   __auto_init
00009710   __cleanup_ptr
00009714   __dtors_ptr
00008c00   __stack
00003000   __strasg
00003940   _abort
00003500   _c_int00
000016e0   _c_int8
000094bc   _cfgEdmaPang_rx
00009504   _cfgEdmaPang_tx
0000948c   _cfgEdmaPing_rx
000094d4   _cfgEdmaPing_tx
000094a4   _cfgEdmaPong_rx
000094ec   _cfgEdmaPong_tx
0000944c   _cfgEdma_rx
00009474   _cfgEdma_tx
00009400   _config1
00003280   _copy_in
000030e0   _exit
0000047c   _forever_loop
00009428   _hCodec
00009448   _hEdmaPang_rx
00009470   _hEdmaPang_tx
00009440   _hEdmaPing_rx
00009468   _hEdmaPing_tx
00009444   _hEdmaPong_rx
0000946c   _hEdmaPong_tx
0000943c   _hEdma_rx
00009464   _hEdma_tx
00000690   _init
00000658   _input_sample
00000448   _main
00001c20   _memcpy
00000618   _output_sample
00008400   _rx_pang
00008000   _rx_ping
00008200   _rx_pong
00009624   _tccAllocTable
00008a00   _tx_pang
00008600   _tx_ping
00008800   _tx_pong
00000020   _vector1
00000140   _vector10
00000160   _vector11
00000180   _vector12
000001a0   _vector13
000001c0   _vector14
000001e0   _vector15
00000040   _vector2
00000060   _vector3
00000080   _vector4
000000a0   _vector5
000000c0   _vector6
000000e0   _vector7
00000120   _vector9
00000000   _vectors
ffffffff   binit
000039a0   cinit
00000400   end
000039a0   etext
ffffffff   pinit


GLOBAL SYMBOLS: SORTED BY Symbol Address 

address    name
--------   ----
00000000   _vectors
00000001   __TI_args_main
00000020   _vector1
00000040   _vector2
00000060   _vector3
00000080   _vector4
000000a0   _vector5
000000c0   _vector6
000000e0   _vector7
00000120   _vector9
00000140   _vector10
00000160   _vector11
00000180   _vector12
000001a0   _vector13
000001c0   _vector14
000001e0   _vector15
00000400   $bss
00000400   .bss
00000400   .text
00000400   ___bss__
00000400   ___end__
00000400   ___text__
00000400   end
00000448   _main
0000047c   _forever_loop
00000560   _MoveData
00000618   _output_sample
00000658   _input_sample
00000690   _init
00000800   __STACK_SIZE
00000fb0   _DSK6713_init
000012b0   _DSK6713_rget
000012c4   _DSK6713_rset
000012d8   _DSK6713_wait
0000132c   _DSK6713_waitusec
00001358   _DSK6713_getVersion
000013e0   _DSK6713_AIC23_openCodec
000016e0   _c_int8
000019a0   _EDMA_open
00001c20   _memcpy
00001e60   __CSL_init
00002080   _IRQ_map
00002400   _EDMA_allocTable
000025a0   _MCBSP_reset
00002740   _EDMA_reset
00002880   _TIMER_open
000029c0   _DSK6713_AIC23_rset
00002a5c   _DSK6713_AIC23_rget
00002a80   _DSK6713_AIC23_config
00002b00   _TIMER_reset
00002c20   _MCBSP_open
00002d20   _MCBSP_start
00002e20   __auto_init
00002f20   _EDMA_config
00003000   __strasg
000030e0   _exit
000031c0   _EDMA_clearPram
00003280   _copy_in
00003340   __IRQ_init
00003480   ___TI_cpp_init
00003500   _c_int00
00003580   _EDMA_disableChannel
000035e0   _EDMA_enableChannel
00003640   _EDMA_intDisable
000036a0   _EDMA_intEnable
00003700   _EDMA_qdmaConfig
00003760   _IRQ_enable
000037a0   _IRQ_reset
000037e0   __args_main
00003820   _CSL6713_LIB_
00003840   _EDMA_intClear
00003860   _EDMA_intTest
00003880   _IRQ_globalDisable
000038a0   _IRQ_globalEnable
000038c0   _IRQ_nmiEnable
000038e0   _IRQ_setVecs
00003900   _MCBSP_read
00003920   _MCBSP_write
00003940   C$$EXIT
00003940   _abort
00003960   __IRQ_hookFetchPacket
000039a0   ___cinit__
000039a0   ___etext__
000039a0   cinit
000039a0   etext
00008000   _rx_ping
00008200   _rx_pong
00008400   _rx_pang
00008600   _tx_ping
00008800   _tx_pong
00008a00   _tx_pang
00008c00   __stack
00009400   __STACK_END
00009400   _config1
00009428   _hCodec
0000942c   _AIC_data
00009430   _Glo
0000943c   _hEdma_rx
00009440   _hEdmaPing_rx
00009444   _hEdmaPong_rx
00009448   _hEdmaPang_rx
0000944c   _cfgEdma_rx
00009464   _hEdma_tx
00009468   _hEdmaPing_tx
0000946c   _hEdmaPong_tx
00009470   _hEdmaPang_tx
00009474   _cfgEdma_tx
0000948c   _cfgEdmaPing_rx
000094a4   _cfgEdmaPong_rx
000094bc   _cfgEdmaPang_rx
000094d4   _cfgEdmaPing_tx
000094ec   _cfgEdmaPong_tx
00009504   _cfgEdmaPang_tx
00009544   __IRQ_eventTable
000095c8   __IRQ_intTable
00009608   __IRQ_dispatchTable
00009624   _tccAllocTable
00009694   __MCBSP_hDev0
00009698   __MCBSP_hDev1
000096ec   __TIMER_deviceTable
00009704   __TIMER_hDev0
00009708   __TIMER_hDev1
0000970c   __TIMER_hBios
00009710   __cleanup_ptr
00009714   __dtors_ptr
00009718   ___TI_enable_exit_profile_output
0000971c   _DSK6713_AIC23_codeccontrolhandle
00009720   _DSK6713_AIC23_codecdatahandle
00009724   _DSK6713_version
ffffffff   ___TI_pprof_out_hndl
ffffffff   ___TI_prof_data_size
ffffffff   ___TI_prof_data_start
ffffffff   ___binit__
ffffffff   ___c_args__
ffffffff   ___pinit__
ffffffff   binit
ffffffff   pinit

[137 symbols]
